target datalayout = "e-m:e-p270:32:32-p271:32:32-p272:64:64-i64:64-i128:128-f80:128-n8:16:32:64-S128"
target triple = "x86_64-pc-linux-gnu"

; Function Attrs: nounwind uwtable
define dso_local void @KeccakP1600_OverwriteBytesInLane(ptr noundef %0, i32 noundef %1, ptr noundef %2, i32 noundef %3, i32 noundef %4) #0 {
  %6 = alloca ptr, align 8
  %7 = alloca i32, align 4
  %8 = alloca ptr, align 8
  %9 = alloca i32, align 4
  %10 = alloca i32, align 4
  store ptr %0, ptr %6, align 8
  store i32 %1, ptr %7, align 4
  store ptr %2, ptr %8, align 8
  store i32 %3, ptr %9, align 4
  store i32 %4, ptr %10, align 4
  %11 = load ptr, ptr %6, align 8
  %12 = load i32, ptr %7, align 4
  %13 = mul i32 %12, 8
  %14 = zext i32 %13 to i64
  %15 = getelementptr inbounds nuw i8, ptr %11, i64 %14
  %16 = load i32, ptr %9, align 4
  %17 = zext i32 %16 to i64
  %18 = getelementptr inbounds nuw i8, ptr %15, i64 %17
  %19 = load ptr, ptr %8, align 8
  %20 = load i32, ptr %10, align 4
  %21 = zext i32 %20 to i64
  call void @llvm.memcpy.p0.p0.i64(ptr align 1 %18, ptr align 1 %19, i64 %21, i1 false)
  ret void
}

; Function Attrs: nounwind uwtable
define dso_local void @KeccakP1600_OverwriteLanes(ptr noundef %0, ptr noundef %1, i32 noundef %2) #0 {
  %4 = alloca ptr, align 8
  %5 = alloca ptr, align 8
  %6 = alloca i32, align 4
  store ptr %0, ptr %4, align 8
  store ptr %1, ptr %5, align 8
  store i32 %2, ptr %6, align 4
  %7 = load ptr, ptr %4, align 8
  %8 = load ptr, ptr %5, align 8
  %9 = load i32, ptr %6, align 4
  %10 = mul i32 %9, 8
  %11 = zext i32 %10 to i64
  call void @llvm.memcpy.p0.p0.i64(ptr align 1 %7, ptr align 1 %8, i64 %11, i1 false)
  ret void
}

; Function Attrs: nounwind uwtable
define dso_local void @KeccakP1600_OverwriteBytes(ptr noundef %0, ptr noundef %1, i32 noundef %2, i32 noundef %3) #0 {
  %5 = alloca ptr, align 8
  %6 = alloca ptr, align 8
  %7 = alloca i32, align 4
  %8 = alloca i32, align 4
  %9 = alloca i32, align 4
  %10 = alloca i32, align 4
  %11 = alloca i32, align 4
  %12 = alloca ptr, align 8
  %13 = alloca i32, align 4
  store ptr %0, ptr %5, align 8
  store ptr %1, ptr %6, align 8
  store i32 %2, ptr %7, align 4
  store i32 %3, ptr %8, align 4
  %14 = load i32, ptr %7, align 4
  %15 = icmp eq i32 %14, 0
  br i1 %15, label %16, label %32

16:                                               ; preds = %4
  %17 = load ptr, ptr %5, align 8
  %18 = load ptr, ptr %6, align 8
  %19 = load i32, ptr %8, align 4
  %20 = udiv i32 %19, 8
  call void @KeccakP1600_OverwriteLanes(ptr noundef %17, ptr noundef %18, i32 noundef %20)
  %21 = load ptr, ptr %5, align 8
  %22 = load i32, ptr %8, align 4
  %23 = udiv i32 %22, 8
  %24 = load ptr, ptr %6, align 8
  %25 = load i32, ptr %8, align 4
  %26 = udiv i32 %25, 8
  %27 = mul i32 %26, 8
  %28 = zext i32 %27 to i64
  %29 = getelementptr inbounds nuw i8, ptr %24, i64 %28
  %30 = load i32, ptr %8, align 4
  %31 = urem i32 %30, 8
  call void @KeccakP1600_OverwriteBytesInLane(ptr noundef %21, i32 noundef %23, ptr noundef %29, i32 noundef 0, i32 noundef %31)
  br label %66

32:                                               ; preds = %4
  call void @llvm.lifetime.start.p0(i64 4, ptr %9) #4
  %33 = load i32, ptr %8, align 4
  store i32 %33, ptr %9, align 4
  call void @llvm.lifetime.start.p0(i64 4, ptr %10) #4
  %34 = load i32, ptr %7, align 4
  %35 = udiv i32 %34, 8
  store i32 %35, ptr %10, align 4
  call void @llvm.lifetime.start.p0(i64 4, ptr %11) #4
  %36 = load i32, ptr %7, align 4
  %37 = urem i32 %36, 8
  store i32 %37, ptr %11, align 4
  call void @llvm.lifetime.start.p0(i64 8, ptr %12) #4
  %38 = load ptr, ptr %6, align 8
  store ptr %38, ptr %12, align 8
  br label %39

39:                                               ; preds = %50, %32
  %40 = load i32, ptr %9, align 4
  %41 = icmp ugt i32 %40, 0
  br i1 %41, label %42, label %65

42:                                               ; preds = %39
  call void @llvm.lifetime.start.p0(i64 4, ptr %13) #4
  %43 = load i32, ptr %11, align 4
  %44 = sub i32 8, %43
  store i32 %44, ptr %13, align 4
  %45 = load i32, ptr %13, align 4
  %46 = load i32, ptr %9, align 4
  %47 = icmp ugt i32 %45, %46
  br i1 %47, label %48, label %50

48:                                               ; preds = %42
  %49 = load i32, ptr %9, align 4
  store i32 %49, ptr %13, align 4
  br label %50

50:                                               ; preds = %48, %42
  %51 = load ptr, ptr %5, align 8
  %52 = load i32, ptr %10, align 4
  %53 = load ptr, ptr %12, align 8
  %54 = load i32, ptr %11, align 4
  %55 = load i32, ptr %13, align 4
  call void @KeccakP1600_OverwriteBytesInLane(ptr noundef %51, i32 noundef %52, ptr noundef %53, i32 noundef %54, i32 noundef %55)
  %56 = load i32, ptr %13, align 4
  %57 = load i32, ptr %9, align 4
  %58 = sub i32 %57, %56
  store i32 %58, ptr %9, align 4
  %59 = load i32, ptr %10, align 4
  %60 = add i32 %59, 1
  store i32 %60, ptr %10, align 4
  store i32 0, ptr %11, align 4
  %61 = load i32, ptr %13, align 4
  %62 = load ptr, ptr %12, align 8
  %63 = zext i32 %61 to i64
  %64 = getelementptr inbounds nuw i8, ptr %62, i64 %63
  store ptr %64, ptr %12, align 8
  call void @llvm.lifetime.end.p0(i64 4, ptr %13) #4
  br label %39, !llvm.loop !14

65:                                               ; preds = %39
  call void @llvm.lifetime.end.p0(i64 8, ptr %12) #4
  call void @llvm.lifetime.end.p0(i64 4, ptr %11) #4
  call void @llvm.lifetime.end.p0(i64 4, ptr %10) #4
  call void @llvm.lifetime.end.p0(i64 4, ptr %9) #4
  br label %66

66:                                               ; preds = %65, %16
  ret void
}