; Function Attrs: nofree norecurse nosync nounwind memory(argmem: readwrite) uwtable
define dso_local void @KeccakP1600_OverwriteBytes(ptr noundef writeonly captures(none) %0, ptr noundef readonly captures(none) %1, i32 noundef %2, i32 noundef %3) local_unnamed_addr #5 {
  %5 = icmp eq i32 %2, 0
  br i1 %5, label %6, label %13

6:                                                ; preds = %4
  %7 = and i32 %3, -8
  %8 = zext i32 %7 to i64
  tail call void @llvm.memcpy.p0.p0.i64(ptr align 1 %0, ptr readonly align 1 %1, i64 %8, i1 false)
  %9 = getelementptr inbounds nuw i8, ptr %1, i64 %8
  %10 = and i32 %3, 7
  %11 = getelementptr inbounds nuw i8, ptr %0, i64 %8
  %12 = zext nneg i32 %10 to i64
  tail call void @llvm.memcpy.p0.p0.i64(ptr align 1 %11, ptr readonly align 1 %9, i64 %12, i1 false)
  br label %.loopexit

13:                                               ; preds = %4
  %.not33 = icmp eq i32 %3, 0
  br i1 %.not33, label %.loopexit, label %.lr.ph.preheader

.lr.ph.preheader:                                 ; preds = %13
  %14 = and i32 %2, 7
  %15 = lshr i32 %2, 3
  br label %.lr.ph

.lr.ph:                                           ; preds = %.lr.ph.preheader, %.lr.ph
  %.02737 = phi ptr [ %25, %.lr.ph ], [ %1, %.lr.ph.preheader ]
  %.02836 = phi i32 [ 0, %.lr.ph ], [ %14, %.lr.ph.preheader ]
  %.02935 = phi i32 [ %24, %.lr.ph ], [ %15, %.lr.ph.preheader ]
  %.03034 = phi i32 [ %23, %.lr.ph ], [ %3, %.lr.ph.preheader ]
  %16 = sub nuw nsw i32 8, %.02836
  %spec.select = tail call i32 @llvm.umin.i32(i32 %16, i32 %.03034)
  %17 = shl i32 %.02935, 3
  %18 = zext i32 %17 to i64
  %19 = getelementptr inbounds nuw i8, ptr %0, i64 %18
  %20 = zext nneg i32 %.02836 to i64
  %21 = getelementptr inbounds nuw i8, ptr %19, i64 %20
  %22 = zext nneg i32 %spec.select to i64
  tail call void @llvm.memcpy.p0.p0.i64(ptr noundef nonnull align 1 dereferenceable(1) %21, ptr noundef nonnull readonly align 1 dereferenceable(1) %.02737, i64 %22, i1 false)
  %23 = sub i32 %.03034, %spec.select
  %24 = add i32 %.02935, 1
  %25 = getelementptr inbounds nuw i8, ptr %.02737, i64 %22
  %.not = icmp eq i32 %23, 0
  br i1 %.not, label %.loopexit, label %.lr.ph, !llvm.loop !14

.loopexit:                                        ; preds = %.lr.ph, %13, %6
  ret void
}